target datalayout = "e-m:e-p270:32:32-p271:32:32-p272:64:64-i64:64-i128:128-f80:128-n8:16:32:64-S128"
target triple = "x86_64-pc-linux-gnu"

%struct.H5O_storage_t = type { i32, %union.anon.5 }
%union.anon.5 = type { %struct.H5O_storage_virtual_t }
%struct.H5O_storage_virtual_t = type { %struct.H5HG_t, i64, ptr, i64, [32 x i64], i32, i64, i64, i64, i8 }
%struct.H5HG_t = type { i64, i64 }
%struct.H5O_storage_contig_t = type { i64, i64 }

@H5D_init_g = external global i8, align 1
@H5_libterm_g = external global i8, align 1

; Function Attrs: nounwind uwtable
define zeroext i1 @H5D__contig_is_space_alloc(ptr noundef %0) #0 {
  %2 = alloca ptr, align 8
  %3 = alloca i8, align 1
  store ptr %0, ptr %2, align 8, !tbaa !58
  call void @llvm.lifetime.start.p0(i64 1, ptr %3) #6
  store i8 0, ptr %3, align 1, !tbaa !12
  %4 = load i8, ptr @H5D_init_g, align 1, !tbaa !12, !range !14, !noundef !15
  %5 = trunc i8 %4 to i1
  br i1 %5, label %10, label %6

6:                                                ; preds = %1
  %7 = load i8, ptr @H5_libterm_g, align 1, !tbaa !12, !range !14, !noundef !15
  %8 = trunc i8 %7 to i1
  %9 = xor i1 %8, true
  br label %10

10:                                               ; preds = %6, %1
  %11 = phi i1 [ true, %1 ], [ %9, %6 ]
  %12 = xor i1 %11, true
  %13 = xor i1 %12, true
  %14 = zext i1 %13 to i32
  %15 = sext i32 %14 to i64
  %16 = call i64 @llvm.expect.i64(i64 %15, i64 1)
  %17 = icmp ne i64 %16, 0
  br i1 %17, label %18, label %25

18:                                               ; preds = %10
  %19 = load ptr, ptr %2, align 8, !tbaa !58
  %20 = getelementptr inbounds nuw %struct.H5O_storage_t, ptr %19, i32 0, i32 1
  %21 = getelementptr inbounds nuw %struct.H5O_storage_contig_t, ptr %20, i32 0, i32 0
  %22 = load i64, ptr %21, align 8, !tbaa !54
  %23 = icmp ne i64 %22, -1
  %24 = zext i1 %23 to i8
  store i8 %24, ptr %3, align 1, !tbaa !12
  br label %25

25:                                               ; preds = %18, %10
  %26 = load i8, ptr %3, align 1, !tbaa !12, !range !14, !noundef !15
  %27 = trunc i8 %26 to i1
  call void @llvm.lifetime.end.p0(i64 1, ptr %3) #6
  ret i1 %27
}